; Function Attrs: mustprogress nofree norecurse nosync nounwind willreturn memory(argmem: readwrite) uwtable
define void @_ZN4base11trace_event24AllocationContextTracker21PopCurrentTaskContextEPKc(ptr noundef nonnull align 8 captures(none) dereferenceable(60) %0, ptr noundef readnone captures(none) %1) local_unnamed_addr #6 align 2 personality ptr @__gxx_personality_v0 {
  %3 = getelementptr inbounds nuw i8, ptr %0, i64 32
  %4 = load ptr, ptr %3, align 8, !tbaa !28
  %5 = getelementptr inbounds nuw i8, ptr %0, i64 40
  %6 = load ptr, ptr %5, align 8, !tbaa !28
  %7 = icmp eq ptr %4, %6
  br i1 %7, label %10, label %8

8:                                                ; preds = %2
  %9 = getelementptr inbounds i8, ptr %6, i64 -8
  store ptr %9, ptr %5, align 8, !tbaa !14
  br label %10

10:                                               ; preds = %2, %8
  ret void
}